target datalayout = "e-m:e-p270:32:32-p271:32:32-p272:64:64-i64:64-i128:128-f80:128-n8:16:32:64-S128"
target triple = "x86_64-pc-linux-gnu"

%struct.rb_data_type_struct = type { ptr, %struct.anon, ptr, ptr, i64 }
%struct.anon = type { ptr, ptr, ptr, ptr, [1 x ptr] }

@eECError = internal global i64 0, align 8
@rb_eRuntimeError = external global i64, align 8
@ossl_evp_pkey_type = external constant %struct.rb_data_type_struct, align 8
@.str.66 = private unnamed_addr constant [25 x i8] c"PKEY wasn't initialized!\00", align 1
@.str.67 = private unnamed_addr constant [23 x i8] c"THIS IS NOT A EC PKEY!\00", align 1
@.str.74 = private unnamed_addr constant [33 x i8] c"can't export - no public key set\00", align 1

; Function Attrs: nounwind sspstrong uwtable
define internal i64 @ossl_ec_key_to_der(i64 noundef %0) #0 {
  %2 = alloca i64, align 8
  %3 = alloca i64, align 8
  %4 = alloca ptr, align 8
  %5 = alloca ptr, align 8
  %6 = alloca i32, align 4
  store i64 %0, ptr %3, align 8, !tbaa !6
  call void @llvm.lifetime.start.p0(i64 8, ptr %4) #19
  br label %7

7:                                                ; preds = %1
  call void @llvm.lifetime.start.p0(i64 8, ptr %5) #19
  br label %8

8:                                                ; preds = %7
  br label %9

9:                                                ; preds = %8
  %10 = load i64, ptr %3, align 8, !tbaa !6
  %11 = call ptr @rb_check_typeddata(i64 noundef %10, ptr noundef @ossl_evp_pkey_type)
  store ptr %11, ptr %5, align 8, !tbaa !23
  %12 = load ptr, ptr %5, align 8, !tbaa !23
  %13 = icmp ne ptr %12, null
  br i1 %13, label %16, label %14

14:                                               ; preds = %9
  %15 = load i64, ptr @rb_eRuntimeError, align 8, !tbaa !6
  call void (i64, ptr, ...) @rb_raise(i64 noundef %15, ptr noundef @.str.66) #20
  unreachable

16:                                               ; preds = %9
  br label %17

17:                                               ; preds = %16
  br label %18

18:                                               ; preds = %17
  %19 = load ptr, ptr %5, align 8, !tbaa !23
  %20 = call i32 @EVP_PKEY_get_base_id(ptr noundef %19)
  %21 = icmp ne i32 %20, 408
  br i1 %21, label %22, label %24

22:                                               ; preds = %18
  %23 = load i64, ptr @rb_eRuntimeError, align 8, !tbaa !6
  call void (i64, ptr, ...) @ossl_raise(i64 noundef %23, ptr noundef @.str.67) #20
  unreachable

24:                                               ; preds = %18
  br label %25

25:                                               ; preds = %24
  br label %26

26:                                               ; preds = %25
  %27 = load ptr, ptr %5, align 8, !tbaa !23
  %28 = call ptr @EVP_PKEY_get0_EC_KEY(ptr noundef %27)
  store ptr %28, ptr %4, align 8, !tbaa !21
  call void @llvm.lifetime.end.p0(i64 8, ptr %5) #19
  br label %29

29:                                               ; preds = %26
  br label %30

30:                                               ; preds = %29
  %31 = load ptr, ptr %4, align 8, !tbaa !21
  %32 = call ptr @EC_KEY_get0_public_key(ptr noundef %31)
  %33 = icmp eq ptr %32, null
  br i1 %33, label %34, label %36

34:                                               ; preds = %30
  %35 = load i64, ptr @eECError, align 8, !tbaa !6
  call void (i64, ptr, ...) @ossl_raise(i64 noundef %35, ptr noundef @.str.74) #20
  unreachable

36:                                               ; preds = %30
  %37 = load ptr, ptr %4, align 8, !tbaa !21
  %38 = call ptr @EC_KEY_get0_private_key(ptr noundef %37)
  %39 = icmp ne ptr %38, null
  br i1 %39, label %40, label %43

40:                                               ; preds = %36
  %41 = load i64, ptr %3, align 8, !tbaa !6
  %42 = call i64 @ossl_pkey_export_traditional(i32 noundef 0, ptr noundef null, i64 noundef %41, i32 noundef 1)
  store i64 %42, ptr %2, align 8
  store i32 1, ptr %6, align 4
  br label %46

43:                                               ; preds = %36
  %44 = load i64, ptr %3, align 8, !tbaa !6
  %45 = call i64 @ossl_pkey_export_spki(i64 noundef %44, i32 noundef 1)
  store i64 %45, ptr %2, align 8
  store i32 1, ptr %6, align 4
  br label %46

46:                                               ; preds = %43, %40
  call void @llvm.lifetime.end.p0(i64 8, ptr %4) #19
  %47 = load i64, ptr %2, align 8
  ret i64 %47
}