; Function Attrs: nounwind sspstrong uwtable
define internal i64 @ossl_ec_key_to_der(i64 noundef %0) #0 {
  %2 = tail call ptr @rb_check_typeddata(i64 noundef %0, ptr noundef nonnull @ossl_evp_pkey_type) #7
  %.not = icmp eq ptr %2, null
  br i1 %.not, label %3, label %5

3:                                                ; preds = %1
  %4 = load i64, ptr @rb_eRuntimeError, align 8, !tbaa !6
  tail call void (i64, ptr, ...) @rb_raise(i64 noundef %4, ptr noundef nonnull @.str.66) #9
  unreachable

5:                                                ; preds = %1
  %6 = tail call i32 @EVP_PKEY_get_base_id(ptr noundef nonnull %2) #7
  %.not9 = icmp eq i32 %6, 408
  br i1 %.not9, label %9, label %7

7:                                                ; preds = %5
  %8 = load i64, ptr @rb_eRuntimeError, align 8, !tbaa !6
  tail call void (i64, ptr, ...) @ossl_raise(i64 noundef %8, ptr noundef nonnull @.str.67) #9
  unreachable

9:                                                ; preds = %5
  %10 = tail call ptr @EVP_PKEY_get0_EC_KEY(ptr noundef nonnull %2) #7
  %11 = tail call ptr @EC_KEY_get0_public_key(ptr noundef %10) #7
  %12 = icmp eq ptr %11, null
  br i1 %12, label %13, label %15

13:                                               ; preds = %9
  %14 = load i64, ptr @eECError, align 8, !tbaa !6
  tail call void (i64, ptr, ...) @ossl_raise(i64 noundef %14, ptr noundef nonnull @.str.74) #9
  unreachable

15:                                               ; preds = %9
  %16 = tail call ptr @EC_KEY_get0_private_key(ptr noundef %10) #7
  %.not10 = icmp eq ptr %16, null
  br i1 %.not10, label %19, label %17

17:                                               ; preds = %15
  %18 = tail call i64 @ossl_pkey_export_traditional(i32 noundef 0, ptr noundef null, i64 noundef %0, i32 noundef 1) #7
  br label %21

19:                                               ; preds = %15
  %20 = tail call i64 @ossl_pkey_export_spki(i64 noundef %0, i32 noundef 1) #7
  br label %21

21:                                               ; preds = %19, %17
  %.0 = phi i64 [ %18, %17 ], [ %20, %19 ]
  ret i64 %.0
}